; Function Attrs: mustprogress nofree norecurse nosync nounwind willreturn memory(argmem: read) uwtable
define internal i32 @cabd_error(ptr noundef readonly %0) #4 {
  %.not = icmp eq ptr %0, null
  br i1 %.not, label %5, label %2

2:                                                ; preds = %1
  %3 = getelementptr inbounds nuw i8, ptr %0, i64 96
  %4 = load i32, ptr %3, align 8, !tbaa !23
  br label %5

5:                                                ; preds = %1, %2
  %6 = phi i32 [ %4, %2 ], [ 1, %1 ]
  ret i32 %6
}